target datalayout = "e-m:e-p270:32:32-p271:32:32-p272:64:64-i64:64-i128:128-f80:128-n8:16:32:64-S128"
target triple = "x86_64-unknown-linux-gnu"

%"class.std::unique_ptr" = type { %"struct.std::__uniq_ptr_data" }
%"struct.std::__uniq_ptr_data" = type { %"class.std::__uniq_ptr_impl" }
%"class.std::__uniq_ptr_impl" = type { %"class.std::tuple" }
%"class.std::tuple" = type { %"struct.std::_Tuple_impl" }
%"struct.std::_Tuple_impl" = type { %"struct.std::_Head_base.1" }
%"struct.std::_Head_base.1" = type { ptr }
%"class.openvdb::v11_0::compression::PagedOutputStream" = type <{ %"class.std::unique_ptr", %"class.std::unique_ptr", i64, i32, [4 x i8], ptr, i8, [7 x i8] }>

; Function Attrs: mustprogress nounwind uwtable
define linkonce_odr noundef nonnull align 8 dereferenceable(8) ptr @_ZNSt10_Head_baseILm0EPcLb0EE7_M_headERKS1_(ptr noundef nonnull align 8 dereferenceable(8) %__b) #4 comdat align 2 {
entry:
  %__b.addr = alloca ptr, align 8
  store ptr %__b, ptr %__b.addr, align 8
  %0 = load ptr, ptr %__b.addr, align 8
  %_M_head_impl = getelementptr inbounds %"struct.std::_Head_base.1", ptr %0, i32 0, i32 0
  ret ptr %_M_head_impl
}

; Function Attrs: mustprogress nounwind uwtable
define linkonce_odr noundef nonnull align 8 dereferenceable(8) ptr @_ZNSt11_Tuple_implILm0EJPcSt14default_deleteIA_cEEE7_M_headERKS4_(ptr noundef nonnull align 8 dereferenceable(8) %__t) #4 comdat align 2 {
entry:
  %__t.addr = alloca ptr, align 8
  store ptr %__t, ptr %__t.addr, align 8
  %0 = load ptr, ptr %__t.addr, align 8
  %call = call noundef nonnull align 8 dereferenceable(8) ptr @_ZNSt10_Head_baseILm0EPcLb0EE7_M_headERKS1_(ptr noundef nonnull align 8 dereferenceable(8) %0) #3
  ret ptr %call
}

; Function Attrs: mustprogress nounwind uwtable
define linkonce_odr noundef nonnull align 8 dereferenceable(8) ptr @_ZSt12__get_helperILm0EPcJSt14default_deleteIA_cEEERKT0_RKSt11_Tuple_implIXT_EJS4_DpT1_EE(ptr noundef nonnull align 8 dereferenceable(8) %__t) #4 comdat {
entry:
  %__t.addr = alloca ptr, align 8
  store ptr %__t, ptr %__t.addr, align 8
  %0 = load ptr, ptr %__t.addr, align 8
  %call = call noundef nonnull align 8 dereferenceable(8) ptr @_ZNSt11_Tuple_implILm0EJPcSt14default_deleteIA_cEEE7_M_headERKS4_(ptr noundef nonnull align 8 dereferenceable(8) %0) #3
  ret ptr %call
}

; Function Attrs: mustprogress nounwind uwtable
define linkonce_odr noundef nonnull align 8 dereferenceable(8) ptr @_ZSt3getILm0EJPcSt14default_deleteIA_cEEERKNSt13tuple_elementIXT_ESt5tupleIJDpT0_EEE4typeERKS8_(ptr noundef nonnull align 8 dereferenceable(8) %__t) #4 comdat {
entry:
  %__t.addr = alloca ptr, align 8
  store ptr %__t, ptr %__t.addr, align 8
  %0 = load ptr, ptr %__t.addr, align 8
  %call = call noundef nonnull align 8 dereferenceable(8) ptr @_ZSt12__get_helperILm0EPcJSt14default_deleteIA_cEEERKT0_RKSt11_Tuple_implIXT_EJS4_DpT1_EE(ptr noundef nonnull align 8 dereferenceable(8) %0) #3
  ret ptr %call
}

; Function Attrs: mustprogress nounwind uwtable
define linkonce_odr noundef ptr @_ZNKSt15__uniq_ptr_implIcSt14default_deleteIA_cEE6_M_ptrEv(ptr noundef nonnull align 8 dereferenceable(8) %this) #4 comdat align 2 {
entry:
  %this.addr = alloca ptr, align 8
  store ptr %this, ptr %this.addr, align 8
  %this1 = load ptr, ptr %this.addr, align 8
  %_M_t = getelementptr inbounds %"class.std::__uniq_ptr_impl", ptr %this1, i32 0, i32 0
  %call = call noundef nonnull align 8 dereferenceable(8) ptr @_ZSt3getILm0EJPcSt14default_deleteIA_cEEERKNSt13tuple_elementIXT_ESt5tupleIJDpT0_EEE4typeERKS8_(ptr noundef nonnull align 8 dereferenceable(8) %_M_t) #3
  %0 = load ptr, ptr %call, align 8
  ret ptr %0
}

; Function Attrs: mustprogress nounwind uwtable
define linkonce_odr noundef ptr @_ZNKSt10unique_ptrIA_cSt14default_deleteIS0_EE3getEv(ptr noundef nonnull align 8 dereferenceable(8) %this) #4 comdat align 2 {
entry:
  %this.addr = alloca ptr, align 8
  store ptr %this, ptr %this.addr, align 8
  %this1 = load ptr, ptr %this.addr, align 8
  %_M_t = getelementptr inbounds %"class.std::unique_ptr", ptr %this1, i32 0, i32 0
  %call = call noundef ptr @_ZNKSt15__uniq_ptr_implIcSt14default_deleteIA_cEE6_M_ptrEv(ptr noundef nonnull align 8 dereferenceable(8) %_M_t) #3
  ret ptr %call
}

; Function Attrs: mustprogress uwtable
define void @_ZN7openvdb5v11_011compression17PagedOutputStream5flushEv(ptr noundef nonnull align 8 dereferenceable(41) %this) #5 align 2 {
entry:
  %this.addr = alloca ptr, align 8
  store ptr %this, ptr %this.addr, align 8
  %this1 = load ptr, ptr %this.addr, align 8
  %mData = getelementptr inbounds %"class.openvdb::v11_0::compression::PagedOutputStream", ptr %this1, i32 0, i32 0
  %call = call noundef ptr @_ZNKSt10unique_ptrIA_cSt14default_deleteIS0_EE3getEv(ptr noundef nonnull align 8 dereferenceable(8) %mData) #3
  %mBytes = getelementptr inbounds %"class.openvdb::v11_0::compression::PagedOutputStream", ptr %this1, i32 0, i32 3
  %0 = load i32, ptr %mBytes, align 8
  %conv = sext i32 %0 to i64
  call void @_ZN7openvdb5v11_011compression17PagedOutputStream16compressAndWriteEPKcm(ptr noundef nonnull align 8 dereferenceable(41) %this1, ptr noundef %call, i64 noundef %conv)
  %mBytes2 = getelementptr inbounds %"class.openvdb::v11_0::compression::PagedOutputStream", ptr %this1, i32 0, i32 3
  store i32 0, ptr %mBytes2, align 8
  ret void
}

; Function Attrs: mustprogress uwtable
define noundef nonnull align 8 dereferenceable(41) ptr @_ZN7openvdb5v11_011compression17PagedOutputStream5writeEPKcl(ptr noundef nonnull align 8 dereferenceable(41) %this, ptr noundef %str, i64 noundef %n) #5 align 2 {
entry:
  %this.addr = alloca ptr, align 8
  %str.addr = alloca ptr, align 8
  %n.addr = alloca i64, align 8
  store ptr %this, ptr %this.addr, align 8
  store ptr %str, ptr %str.addr, align 8
  store i64 %n, ptr %n.addr, align 8
  %this1 = load ptr, ptr %this.addr, align 8
  %0 = load i64, ptr %n.addr, align 8
  %cmp = icmp sgt i64 %0, 1048576
  br i1 %cmp, label %if.then, label %if.else

if.then:                                          ; preds = %entry
  call void @_ZN7openvdb5v11_011compression17PagedOutputStream5flushEv(ptr noundef nonnull align 8 dereferenceable(41) %this1)
  %1 = load ptr, ptr %str.addr, align 8
  %2 = load i64, ptr %n.addr, align 8
  call void @_ZN7openvdb5v11_011compression17PagedOutputStream16compressAndWriteEPKcm(ptr noundef nonnull align 8 dereferenceable(41) %this1, ptr noundef %1, i64 noundef %2)
  br label %if.end8

if.else:                                          ; preds = %entry
  %3 = load i64, ptr %n.addr, align 8
  %conv = trunc i64 %3 to i32
  %mBytes = getelementptr inbounds %"class.openvdb::v11_0::compression::PagedOutputStream", ptr %this1, i32 0, i32 3
  %4 = load i32, ptr %mBytes, align 8
  %add = add nsw i32 %conv, %4
  %cmp2 = icmp sgt i32 %add, 1048576
  br i1 %cmp2, label %if.then3, label %if.end

if.then3:                                         ; preds = %if.else
  call void @_ZN7openvdb5v11_011compression17PagedOutputStream5flushEv(ptr noundef nonnull align 8 dereferenceable(41) %this1)
  br label %if.end

if.end:                                           ; preds = %if.then3, %if.else
  %mData = getelementptr inbounds %"class.openvdb::v11_0::compression::PagedOutputStream", ptr %this1, i32 0, i32 0
  %call = call noundef ptr @_ZNKSt10unique_ptrIA_cSt14default_deleteIS0_EE3getEv(ptr noundef nonnull align 8 dereferenceable(8) %mData) #3
  %mBytes4 = getelementptr inbounds %"class.openvdb::v11_0::compression::PagedOutputStream", ptr %this1, i32 0, i32 3
  %5 = load i32, ptr %mBytes4, align 8
  %idx.ext = sext i32 %5 to i64
  %add.ptr = getelementptr inbounds i8, ptr %call, i64 %idx.ext
  %6 = load ptr, ptr %str.addr, align 8
  %7 = load i64, ptr %n.addr, align 8
  call void @llvm.memcpy.p0.p0.i64(ptr align 1 %add.ptr, ptr align 1 %6, i64 %7, i1 false)
  %8 = load i64, ptr %n.addr, align 8
  %conv5 = trunc i64 %8 to i32
  %mBytes6 = getelementptr inbounds %"class.openvdb::v11_0::compression::PagedOutputStream", ptr %this1, i32 0, i32 3
  %9 = load i32, ptr %mBytes6, align 8
  %add7 = add nsw i32 %9, %conv5
  store i32 %add7, ptr %mBytes6, align 8
  br label %if.end8

if.end8:                                          ; preds = %if.end, %if.then
  ret ptr %this1
}