; Function Attrs: mustprogress uwtable
define noundef nonnull align 8 dereferenceable(41) ptr @_ZN7openvdb5v11_011compression17PagedOutputStream5writeEPKcl(ptr noundef nonnull returned align 8 dereferenceable(41) %this, ptr noundef %str, i64 noundef %n) local_unnamed_addr #4 align 2 {
entry:
  %cmp = icmp sgt i64 %n, 1048576
  %mBytes.i = getelementptr inbounds i8, ptr %this, i64 24
  %0 = load i32, ptr %mBytes.i, align 8
  br i1 %cmp, label %if.then, label %if.else

if.then:                                          ; preds = %entry
  %1 = load ptr, ptr %this, align 8
  %conv.i = sext i32 %0 to i64
  tail call void @_ZN7openvdb5v11_011compression17PagedOutputStream16compressAndWriteEPKcm(ptr noundef nonnull align 8 dereferenceable(41) %this, ptr noundef %1, i64 noundef %conv.i)
  store i32 0, ptr %mBytes.i, align 8
  tail call void @_ZN7openvdb5v11_011compression17PagedOutputStream16compressAndWriteEPKcm(ptr noundef nonnull align 8 dereferenceable(41) %this, ptr noundef %str, i64 noundef %n)
  br label %if.end8

if.else:                                          ; preds = %entry
  %conv = trunc i64 %n to i32
  %add = add nsw i32 %0, %conv
  %cmp2 = icmp sgt i32 %add, 1048576
  br i1 %cmp2, label %if.then3, label %if.end

if.then3:                                         ; preds = %if.else
  %2 = load ptr, ptr %this, align 8
  %conv.i7 = sext i32 %0 to i64
  tail call void @_ZN7openvdb5v11_011compression17PagedOutputStream16compressAndWriteEPKcm(ptr noundef nonnull align 8 dereferenceable(41) %this, ptr noundef %2, i64 noundef %conv.i7)
  store i32 0, ptr %mBytes.i, align 8
  br label %if.end

if.end:                                           ; preds = %if.then3, %if.else
  %3 = phi i32 [ 0, %if.then3 ], [ %0, %if.else ]
  %4 = load ptr, ptr %this, align 8
  %idx.ext = sext i32 %3 to i64
  %add.ptr = getelementptr inbounds i8, ptr %4, i64 %idx.ext
  tail call void @llvm.memcpy.p0.p0.i64(ptr align 1 %add.ptr, ptr align 1 %str, i64 %n, i1 false)
  %5 = load i32, ptr %mBytes.i, align 8
  %add7 = add nsw i32 %5, %conv
  store i32 %add7, ptr %mBytes.i, align 8
  br label %if.end8

if.end8:                                          ; preds = %if.end, %if.then
  ret ptr %this
}